; ModuleID = 'source-C-CXX/35/1378.c'
source_filename = "source-C-CXX/35/1378.c"
target datalayout = "e-m:e-p270:32:32-p271:32:32-p272:64:64-i64:64-f80:128-n8:16:32:64-S128"
target triple = "x86_64-pc-linux-gnu"

@.str = private unnamed_addr constant [5 x i8] c"%s%s\00", align 1
@.str.1 = private unnamed_addr constant [4 x i8] c"YES\00", align 1
@.str.2 = private unnamed_addr constant [3 x i8] c"NO\00", align 1

; Function Attrs: nofree nounwind sspstrong uwtable
define dso_local i32 @main() local_unnamed_addr #0 {
  %1 = alloca [100 x i8], align 16
  %2 = alloca [100 x i8], align 16
  %3 = getelementptr inbounds [100 x i8], [100 x i8]* %1, i64 0, i64 0
  call void @llvm.lifetime.start.p0i8(i64 100, i8* nonnull %3) #4
  %4 = getelementptr inbounds [100 x i8], [100 x i8]* %2, i64 0, i64 0
  call void @llvm.lifetime.start.p0i8(i64 100, i8* nonnull %4) #4
  %5 = call i32 (i8*, ...) @__isoc99_scanf(i8* getelementptr inbounds ([5 x i8], [5 x i8]* @.str, i64 0, i64 0), i8* nonnull %3, i8* nonnull %4)
  %6 = call i64 @strlen(i8* noundef nonnull %3) #5
  %7 = trunc i64 %6 to i32
  %8 = call i64 @strlen(i8* noundef nonnull %4) #5
  %9 = trunc i64 %8 to i32
  %10 = add i32 %7, -1
  %11 = icmp sgt i32 %7, 1
  br i1 %11, label %12, label %23

12:                                               ; preds = %0, %53
  %13 = phi i32 [ %54, %53 ], [ 0, %0 ]
  %14 = sub i32 %10, %13
  %15 = zext i32 %14 to i64
  %16 = icmp sgt i32 %10, %13
  br i1 %16, label %17, label %53

17:                                               ; preds = %12
  %18 = load i8, i8* %3, align 16, !tbaa !5
  %19 = and i64 %15, 1
  %20 = icmp eq i32 %14, 1
  br i1 %20, label %42, label %21

21:                                               ; preds = %17
  %22 = and i64 %15, 4294967294
  br label %26

23:                                               ; preds = %53, %0
  %24 = add i32 %9, -1
  %25 = icmp sgt i32 %9, 1
  br i1 %25, label %56, label %97

26:                                               ; preds = %104, %21
  %27 = phi i8 [ %18, %21 ], [ %105, %104 ]
  %28 = phi i64 [ 0, %21 ], [ %38, %104 ]
  %29 = phi i64 [ %22, %21 ], [ %106, %104 ]
  %30 = or i64 %28, 1
  %31 = getelementptr inbounds [100 x i8], [100 x i8]* %1, i64 0, i64 %30
  %32 = load i8, i8* %31, align 1, !tbaa !5
  %33 = icmp slt i8 %27, %32
  br i1 %33, label %34, label %36

34:                                               ; preds = %26
  %35 = getelementptr inbounds [100 x i8], [100 x i8]* %1, i64 0, i64 %28
  store i8 %32, i8* %35, align 2, !tbaa !5
  store i8 %27, i8* %31, align 1, !tbaa !5
  br label %36

36:                                               ; preds = %26, %34
  %37 = phi i8 [ %32, %26 ], [ %27, %34 ]
  %38 = add nuw nsw i64 %28, 2
  %39 = getelementptr inbounds [100 x i8], [100 x i8]* %1, i64 0, i64 %38
  %40 = load i8, i8* %39, align 2, !tbaa !5
  %41 = icmp slt i8 %37, %40
  br i1 %41, label %102, label %104

42:                                               ; preds = %104, %17
  %43 = phi i8 [ %18, %17 ], [ %105, %104 ]
  %44 = phi i64 [ 0, %17 ], [ %38, %104 ]
  %45 = icmp eq i64 %19, 0
  br i1 %45, label %53, label %46

46:                                               ; preds = %42
  %47 = add nuw nsw i64 %44, 1
  %48 = getelementptr inbounds [100 x i8], [100 x i8]* %1, i64 0, i64 %47
  %49 = load i8, i8* %48, align 1, !tbaa !5
  %50 = icmp slt i8 %43, %49
  br i1 %50, label %51, label %53

51:                                               ; preds = %46
  %52 = getelementptr inbounds [100 x i8], [100 x i8]* %1, i64 0, i64 %44
  store i8 %49, i8* %52, align 1, !tbaa !5
  store i8 %43, i8* %48, align 1, !tbaa !5
  br label %53

53:                                               ; preds = %42, %46, %51, %12
  %54 = add nuw nsw i32 %13, 1
  %55 = icmp eq i32 %54, %10
  br i1 %55, label %23, label %12, !llvm.loop !8

56:                                               ; preds = %23, %94
  %57 = phi i32 [ %95, %94 ], [ 0, %23 ]
  %58 = sub i32 %24, %57
  %59 = zext i32 %58 to i64
  %60 = icmp sgt i32 %24, %57
  br i1 %60, label %61, label %94

61:                                               ; preds = %56
  %62 = load i8, i8* %4, align 16, !tbaa !5
  %63 = and i64 %59, 1
  %64 = icmp eq i32 %58, 1
  br i1 %64, label %83, label %65

65:                                               ; preds = %61
  %66 = and i64 %59, 4294967294
  br label %67

67:                                               ; preds = %110, %65
  %68 = phi i8 [ %62, %65 ], [ %111, %110 ]
  %69 = phi i64 [ 0, %65 ], [ %79, %110 ]
  %70 = phi i64 [ %66, %65 ], [ %112, %110 ]
  %71 = or i64 %69, 1
  %72 = getelementptr inbounds [100 x i8], [100 x i8]* %2, i64 0, i64 %71
  %73 = load i8, i8* %72, align 1, !tbaa !5
  %74 = icmp slt i8 %68, %73
  br i1 %74, label %75, label %77

75:                                               ; preds = %67
  %76 = getelementptr inbounds [100 x i8], [100 x i8]* %2, i64 0, i64 %69
  store i8 %73, i8* %76, align 2, !tbaa !5
  store i8 %68, i8* %72, align 1, !tbaa !5
  br label %77

77:                                               ; preds = %67, %75
  %78 = phi i8 [ %73, %67 ], [ %68, %75 ]
  %79 = add nuw nsw i64 %69, 2
  %80 = getelementptr inbounds [100 x i8], [100 x i8]* %2, i64 0, i64 %79
  %81 = load i8, i8* %80, align 2, !tbaa !5
  %82 = icmp slt i8 %78, %81
  br i1 %82, label %108, label %110

83:                                               ; preds = %110, %61
  %84 = phi i8 [ %62, %61 ], [ %111, %110 ]
  %85 = phi i64 [ 0, %61 ], [ %79, %110 ]
  %86 = icmp eq i64 %63, 0
  br i1 %86, label %94, label %87

87:                                               ; preds = %83
  %88 = add nuw nsw i64 %85, 1
  %89 = getelementptr inbounds [100 x i8], [100 x i8]* %2, i64 0, i64 %88
  %90 = load i8, i8* %89, align 1, !tbaa !5
  %91 = icmp slt i8 %84, %90
  br i1 %91, label %92, label %94

92:                                               ; preds = %87
  %93 = getelementptr inbounds [100 x i8], [100 x i8]* %2, i64 0, i64 %85
  store i8 %90, i8* %93, align 1, !tbaa !5
  store i8 %84, i8* %89, align 1, !tbaa !5
  br label %94

94:                                               ; preds = %83, %87, %92, %56
  %95 = add nuw nsw i32 %57, 1
  %96 = icmp eq i32 %95, %24
  br i1 %96, label %97, label %56, !llvm.loop !10

97:                                               ; preds = %94, %23
  %98 = call i32 @strcmp(i8* noundef nonnull %3, i8* noundef nonnull %4) #5
  %99 = icmp eq i32 %98, 0
  %100 = select i1 %99, i8* getelementptr inbounds ([4 x i8], [4 x i8]* @.str.1, i64 0, i64 0), i8* getelementptr inbounds ([3 x i8], [3 x i8]* @.str.2, i64 0, i64 0)
  %101 = call i32 (i8*, ...) @printf(i8* nonnull dereferenceable(1) %100)
  call void @llvm.lifetime.end.p0i8(i64 100, i8* nonnull %4) #4
  call void @llvm.lifetime.end.p0i8(i64 100, i8* nonnull %3) #4
  ret i32 0

102:                                              ; preds = %36
  %103 = getelementptr inbounds [100 x i8], [100 x i8]* %1, i64 0, i64 %30
  store i8 %40, i8* %103, align 1, !tbaa !5
  store i8 %37, i8* %39, align 2, !tbaa !5
  br label %104

104:                                              ; preds = %102, %36
  %105 = phi i8 [ %40, %36 ], [ %37, %102 ]
  %106 = add i64 %29, -2
  %107 = icmp eq i64 %106, 0
  br i1 %107, label %42, label %26, !llvm.loop !11

108:                                              ; preds = %77
  %109 = getelementptr inbounds [100 x i8], [100 x i8]* %2, i64 0, i64 %71
  store i8 %81, i8* %109, align 1, !tbaa !5
  store i8 %78, i8* %80, align 2, !tbaa !5
  br label %110

110:                                              ; preds = %108, %77
  %111 = phi i8 [ %81, %77 ], [ %78, %108 ]
  %112 = add i64 %70, -2
  %113 = icmp eq i64 %112, 0
  br i1 %113, label %83, label %67, !llvm.loop !12
}

; Function Attrs: argmemonly mustprogress nofree nosync nounwind willreturn
declare void @llvm.lifetime.start.p0i8(i64 immarg, i8* nocapture) #1

; Function Attrs: nofree nounwind
declare noundef i32 @__isoc99_scanf(i8* nocapture noundef readonly, ...) local_unnamed_addr #2

; Function Attrs: argmemonly mustprogress nofree nounwind readonly willreturn
declare i64 @strlen(i8* nocapture) local_unnamed_addr #3

; Function Attrs: argmemonly mustprogress nofree nounwind readonly willreturn
declare i32 @strcmp(i8* nocapture, i8* nocapture) local_unnamed_addr #3

; Function Attrs: nofree nounwind
declare noundef i32 @printf(i8* nocapture noundef readonly, ...) local_unnamed_addr #2

; Function Attrs: argmemonly mustprogress nofree nosync nounwind willreturn
declare void @llvm.lifetime.end.p0i8(i64 immarg, i8* nocapture) #1


!llvm.module.flags = !{!0, !1, !2, !3}
!llvm.ident = !{!4}

!0 = !{i32 1, !"wchar_size", i32 4}
!1 = !{i32 7, !"PIC Level", i32 2}
!2 = !{i32 7, !"PIE Level", i32 2}
!3 = !{i32 7, !"uwtable", i32 1}
!4 = !{!"clang version 13.0.0"}
!5 = !{!6, !6, i64 0}
!6 = !{!"omnipotent char", !7, i64 0}
!7 = !{!"Simple C/C++ TBAA"}
!8 = distinct !{!8, !9}
!9 = !{!"llvm.loop.mustprogress"}
!10 = distinct !{!10, !9}
!11 = distinct !{!11, !9}
!12 = distinct !{!12, !9}
